Certificate:
    Data:
        Version: 3 (0x2)
        Serial Number:
            54:5a:69:ce:29:92:a0:2c:61:3e:9b:13:9b:d3:ff:cc:e4:f4:03:e5
        Signature Algorithm: sha512WithRSAEncryption
        Issuer: C=IT, O=IGI, CN=Test CA
        Validity
            Not Before: Sep 22 10:28:15 2025 GMT
            Not After : Oct 22 10:28:15 2025 GMT
        Subject: C=IT, O=IGI, CN=Test0
        Subject Public Key Info:
            Public Key Algorithm: rsaEncryption
                Public-Key: (2048 bit)
                Modulus:
                    00:9d:9a:90:4d:f9:e5:a8:1a:cc:08:bf:b9:1d:48:
                    0f:50:d2:8f:63:91:b3:c4:35:99:7c:c7:33:74:7e:
                    4f:87:f7:70:64:84:36:fb:a6:78:f0:f6:da:e1:c6:
                    37:76:83:25:ea:30:ac:4c:6b:5a:c3:fb:1a:8b:70:
                    e4:06:85:89:d2:40:00:07:4e:9e:18:b6:51:51:ad:
                    82:a0:f5:e2:cb:54:a8:91:a3:e2:b4:ec:54:e5:72:
                    59:5a:07:d2:97:5b:68:35:04:97:07:04:21:3c:68:
                    8f:bf:e8:70:3d:2d:6a:6f:c7:00:70:cc:2d:35:76:
                    d9:19:11:be:66:b2:03:84:82:a9:ae:e6:e1:f4:86:
                    91:5d:0a:c1:0e:2a:cc:9c:8a:5a:24:bc:c2:11:a4:
                    f9:db:12:17:7f:d3:96:ea:32:4f:38:95:91:82:4a:
                    48:a6:a8:bf:5f:09:3f:8b:72:57:d1:a1:ca:d6:36:
                    70:a6:6e:54:25:91:57:b7:94:7b:78:06:6f:7c:26:
                    70:8b:7d:a6:ea:00:6e:99:a9:de:f6:bb:85:c9:8a:
                    f5:bd:75:19:94:3d:08:8f:f9:fd:31:c9:af:b5:f6:
                    c8:16:1b:39:8d:b6:77:ef:1e:01:68:3b:27:73:ae:
                    1c:19:ac:1c:5f:1f:b9:f2:49:31:c5:af:09:09:62:
                    fc:ed
                Exponent: 65537 (0x10001)
        X509v3 extensions:
            X509v3 Basic Constraints: critical
                CA:FALSE
            X509v3 Subject Key Identifier: 
                E1:DA:47:A2:0C:44:EE:7E:46:18:D1:A9:4A:F2:3B:84:39:F0:C6:58
            X509v3 Key Usage: critical
                Digital Signature, Non Repudiation, Key Encipherment
            X509v3 Authority Key Identifier: 
                B0:FE:87:42:47:92:8B:11:B5:AA:B6:B6:4C:4C:CB:E6:7A:7D:46:E7
            X509v3 Subject Alternative Name: 
                email:test0@cnaf.infn.it
    Signature Algorithm: sha512WithRSAEncryption
    Signature Value:
        1e:1a:df:8b:e2:45:7e:16:16:9b:68:53:65:4f:31:e0:a1:00:
        80:75:67:54:eb:3a:89:d6:4e:8f:f7:ab:65:6f:e3:bb:b0:6c:
        8e:bf:fd:77:51:b1:75:60:93:83:ed:f9:0f:1c:75:d2:a0:23:
        f9:57:28:dc:a2:e6:cf:4e:e1:8b:70:7f:97:49:28:e7:c4:4b:
        82:77:29:f5:e0:08:f5:30:39:39:49:d3:c6:a6:69:3f:bf:d9:
        a1:9d:1a:ea:ba:31:e1:19:64:64:29:6d:b9:d1:ac:05:3c:27:
        b0:d4:48:b2:32:4c:c6:10:ee:5e:23:c8:b4:9e:95:82:01:c6:
        c2:12:5c:f5:24:50:0b:37:82:be:b7:20:69:8d:40:16:6a:36:
        d6:c3:76:88:a1:1b:e7:ec:ef:59:cf:c3:68:91:3a:e6:9b:41:
        42:70:c8:0b:77:1b:d9:7b:03:31:53:97:9a:42:87:b2:93:b2:
        fb:96:00:0d:0f:c4:d1:4c:60:01:bc:56:7d:a5:f2:36:ec:a8:
        aa:63:09:e3:08:fa:9a:bf:9a:9d:aa:df:9b:b5:80:07:5a:eb:
        ce:88:05:97:90:7e:29:34:ef:5a:21:33:6b:48:7b:3a:05:85:
        52:bb:98:16:b5:85:58:36:92:57:87:ca:b0:c9:7a:6a:83:45:
        0b:92:4d:48
-----BEGIN CERTIFICATE-----
MIIDZTCCAk2gAwIBAgIUVFppzimSoCxhPpsTm9P/zOT0A+UwDQYJKoZIhvcNAQEN
BQAwLTELMAkGA1UEBhMCSVQxDDAKBgNVBAoMA0lHSTEQMA4GA1UEAwwHVGVzdCBD
QTAeFw0yNTA5MjIxMDI4MTVaFw0yNTEwMjIxMDI4MTVaMCsxCzAJBgNVBAYTAklU
MQwwCgYDVQQKDANJR0kxDjAMBgNVBAMMBVRlc3QwMIIBIjANBgkqhkiG9w0BAQEF
AAOCAQ8AMIIBCgKCAQEAnZqQTfnlqBrMCL+5HUgPUNKPY5GzxDWZfMczdH5Ph/dw
ZIQ2+6Z48Pba4cY3doMl6jCsTGtaw/sai3DkBoWJ0kAAB06eGLZRUa2CoPXiy1So
kaPitOxU5XJZWgfSl1toNQSXBwQhPGiPv+hwPS1qb8cAcMwtNXbZGRG+ZrIDhIKp
rubh9IaRXQrBDirMnIpaJLzCEaT52xIXf9OW6jJPOJWRgkpIpqi/Xwk/i3JX0aHK
1jZwpm5UJZFXt5R7eAZvfCZwi32m6gBumane9ruFyYr1vXUZlD0Ij/n9McmvtfbI
Fhs5jbZ37x4BaDsnc64cGawcXx+58kkxxa8JCWL87QIDAQABo38wfTAMBgNVHRMB
Af8EAjAAMB0GA1UdDgQWBBTh2keiDETufkYY0alK8juEOfDGWDAOBgNVHQ8BAf8E
BAMCBeAwHwYDVR0jBBgwFoAUsP6HQkeSixG1qra2TEzL5np9RucwHQYDVR0RBBYw
FIESdGVzdDBAY25hZi5pbmZuLml0MA0GCSqGSIb3DQEBDQUAA4IBAQAeGt+L4kV+
FhabaFNlTzHgoQCAdWdU6zqJ1k6P96tlb+O7sGyOv/13UbF1YJOD7fkPHHXSoCP5
VyjcoubPTuGLcH+XSSjnxEuCdyn14Aj1MDk5SdPGpmk/v9mhnRrqujHhGWRkKW25
0awFPCew1EiyMkzGEO5eI8i0npWCAcbCElz1JFALN4K+tyBpjUAWajbWw3aIoRvn
7O9Zz8NokTrmm0FCcMgLdxvZewMxU5eaQoeyk7L7lgAND8TRTGABvFZ9pfI27Kiq
YwnjCPqav5qdqt+btYAHWuvOiAWXkH4pNO9aITNrSHs6BYVSu5gWtYVYNpJXh8qw
yXpqg0ULkk1I
-----END CERTIFICATE-----
