Certificate:
    Data:
        Version: 3 (0x2)
        Serial Number:
            23:8c:67:98:2d:cd:38:21:f2:27:ba:1a:d3:ec:8b:23:7d:c0:b9:35
        Signature Algorithm: sha512WithRSAEncryption
        Issuer: C=IT, O=IGI, CN=Test CA
        Validity
            Not Before: Sep 25 15:02:02 2025 GMT
            Not After : Oct 25 15:02:02 2025 GMT
        Subject: C=IT, O=IGI, CN=iam.test.example
        Subject Public Key Info:
            Public Key Algorithm: rsaEncryption
                Public-Key: (2048 bit)
                Modulus:
                    00:a8:d9:39:6f:ef:83:53:b7:97:f5:4c:6a:1f:87:
                    9f:f1:75:d9:af:39:f2:5b:ee:50:43:59:bf:04:1a:
                    7c:8c:9e:2b:8f:89:44:7f:b5:22:1c:b1:fb:6f:8b:
                    3a:23:d9:63:2c:1d:aa:2f:d7:37:9b:33:b1:be:29:
                    5b:25:15:c5:ac:ef:dd:df:ea:4c:1e:6c:df:69:b0:
                    a8:4c:bd:d1:73:07:4d:55:1b:5b:91:cf:3b:e2:00:
                    e1:89:14:42:75:e5:30:d7:b7:72:64:e1:3b:a5:ad:
                    86:a9:a9:0b:cd:53:94:75:b2:78:61:3c:f5:0b:f5:
                    77:0d:83:0a:04:c9:60:9f:30:ad:6c:6c:3e:c5:da:
                    11:fc:3c:95:03:fb:02:ca:16:9c:dc:d9:7c:6c:20:
                    b8:b2:67:2b:ad:40:7a:ba:6a:c7:a5:df:b9:3d:11:
                    79:d5:52:45:e3:b7:5a:da:34:e5:d7:7a:f4:c2:34:
                    5e:77:98:86:a4:f6:b0:70:55:3d:12:97:d6:0b:b6:
                    9b:52:b5:1d:fd:d7:ab:10:4a:d1:1b:f1:6e:b1:6e:
                    7a:de:9c:2f:3c:fa:7d:e7:52:39:1d:20:44:6c:37:
                    05:1b:ee:7c:9b:79:6b:cc:d9:06:76:99:28:e9:ed:
                    a9:3d:67:f7:84:a8:b0:77:a0:80:f5:2c:35:24:98:
                    87:89
                Exponent: 65537 (0x10001)
        X509v3 extensions:
            X509v3 Basic Constraints: critical
                CA:FALSE
            X509v3 Subject Key Identifier: 
                0A:6E:F7:4B:22:53:F5:4D:9C:28:9D:A4:4F:03:E9:F8:80:6E:FA:C6
            X509v3 Key Usage: critical
                Digital Signature, Non Repudiation, Key Encipherment
            X509v3 Authority Key Identifier: 
                2E:9D:E6:6B:E6:18:8D:09:C1:42:66:3F:58:B5:33:38:AE:B7:8A:32
            X509v3 Subject Alternative Name: 
                DNS:iam.test.example
    Signature Algorithm: sha512WithRSAEncryption
    Signature Value:
        2b:43:27:21:f8:82:2b:3b:be:77:c6:b3:6b:45:29:35:ca:69:
        c2:46:8b:7a:be:05:2f:9f:84:49:17:e8:b5:7d:ce:13:66:ed:
        8d:50:07:f9:69:41:5e:e6:87:4c:91:e3:47:45:6e:d4:ca:3f:
        ab:ba:8e:32:29:76:4c:7c:15:a2:90:1c:2d:81:bc:cc:d2:e3:
        0b:30:3c:78:56:42:1a:88:93:a4:77:45:ef:be:ff:f0:9b:d4:
        f1:eb:ca:9e:54:7a:51:42:8d:d5:fa:13:cc:94:d8:3f:2d:53:
        67:4d:a4:95:13:7e:91:82:2c:83:9f:5c:ca:84:77:0a:df:ad:
        0b:36:81:c1:3a:94:0d:6d:29:51:af:90:45:84:b2:b5:14:c8:
        91:9b:a7:4a:78:87:b4:9a:d3:87:95:b2:98:72:84:d4:e8:8c:
        d3:94:fc:1a:bd:32:a2:77:b3:f5:f4:e9:8f:12:20:84:01:80:
        40:5b:d2:ea:82:b9:f5:9a:ad:b3:c9:3a:96:bd:ff:48:5f:5b:
        19:e2:02:fc:32:84:87:23:9e:26:5d:bd:36:c3:1d:0c:28:87:
        b9:8d:19:f9:96:ef:c1:5a:3e:78:a2:5d:32:2d:2d:d0:58:ab:
        d8:d1:e2:04:2f:6e:d7:f3:8e:b8:65:25:8c:6c:d8:31:75:1f:
        a8:b8:56:3e
-----BEGIN CERTIFICATE-----
MIIDbjCCAlagAwIBAgIUI4xnmC3NOCHyJ7oa0+yLI33AuTUwDQYJKoZIhvcNAQEN
BQAwLTELMAkGA1UEBhMCSVQxDDAKBgNVBAoMA0lHSTEQMA4GA1UEAwwHVGVzdCBD
QTAeFw0yNTA5MjUxNTAyMDJaFw0yNTEwMjUxNTAyMDJaMDYxCzAJBgNVBAYTAklU
MQwwCgYDVQQKDANJR0kxGTAXBgNVBAMMEGlhbS50ZXN0LmV4YW1wbGUwggEiMA0G
CSqGSIb3DQEBAQUAA4IBDwAwggEKAoIBAQCo2Tlv74NTt5f1TGofh5/xddmvOfJb
7lBDWb8EGnyMniuPiUR/tSIcsftvizoj2WMsHaov1zebM7G+KVslFcWs793f6kwe
bN9psKhMvdFzB01VG1uRzzviAOGJFEJ15TDXt3Jk4TulrYapqQvNU5R1snhhPPUL
9XcNgwoEyWCfMK1sbD7F2hH8PJUD+wLKFpzc2XxsILiyZyutQHq6asel37k9EXnV
UkXjt1raNOXXevTCNF53mIak9rBwVT0Sl9YLtptStR3916sQStEb8W6xbnrenC88
+n3nUjkdIERsNwUb7nybeWvM2QZ2mSjp7ak9Z/eEqLB3oID1LDUkmIeJAgMBAAGj
fTB7MAwGA1UdEwEB/wQCMAAwHQYDVR0OBBYEFApu90siU/VNnCidpE8D6fiAbvrG
MA4GA1UdDwEB/wQEAwIF4DAfBgNVHSMEGDAWgBQuneZr5hiNCcFCZj9YtTM4rreK
MjAbBgNVHREEFDASghBpYW0udGVzdC5leGFtcGxlMA0GCSqGSIb3DQEBDQUAA4IB
AQArQych+IIrO753xrNrRSk1ymnCRot6vgUvn4RJF+i1fc4TZu2NUAf5aUFe5odM
keNHRW7Uyj+ruo4yKXZMfBWikBwtgbzM0uMLMDx4VkIaiJOkd0Xvvv/wm9Tx68qe
VHpRQo3V+hPMlNg/LVNnTaSVE36RgiyDn1zKhHcK360LNoHBOpQNbSlRr5BFhLK1
FMiRm6dKeIe0mtOHlbKYcoTU6IzTlPwavTKid7P19OmPEiCEAYBAW9Lqgrn1mq2z
yTqWvf9IX1sZ4gL8MoSHI54mXb02wx0MKIe5jRn5lu/BWj54ol0yLS3QWKvY0eIE
L27X8464ZSWMbNgxdR+ouFY+
-----END CERTIFICATE-----
