Certificate:
    Data:
        Version: 3 (0x2)
        Serial Number:
            6f:f5:28:38:cd:0d:64:1c:52:e9:ce:62:8d:fb:9b:bd:da:00:75:2e
        Signature Algorithm: sha512WithRSAEncryption
        Issuer: C=IT, O=IGI, CN=Test CA
        Validity
            Not Before: Sep 24 08:43:36 2025 GMT
            Not After : Oct 24 08:43:36 2025 GMT
        Subject: C=IT, O=IGI, CN=iam.test.example
        Subject Public Key Info:
            Public Key Algorithm: rsaEncryption
                Public-Key: (2048 bit)
                Modulus:
                    00:97:2f:76:33:1d:5d:13:06:9b:2d:08:5e:7b:7f:
                    1f:7d:22:8e:2e:41:21:5e:8d:7d:83:65:1b:92:8b:
                    56:8a:ee:5c:6b:dc:1b:f1:e3:7d:53:1d:7e:a0:8a:
                    ce:5a:0c:d0:40:cd:d7:03:d8:89:01:16:13:35:26:
                    2a:76:e9:32:16:8b:2c:70:f1:1b:0b:4b:6b:9d:b5:
                    5f:f7:85:d7:2f:39:df:8f:14:25:31:f7:1b:a0:d0:
                    d1:fa:a3:28:08:eb:50:85:e5:9c:82:1b:99:6c:24:
                    88:57:1c:df:2b:e4:b5:51:9f:0b:7b:8c:86:9d:4c:
                    7d:5f:8e:b0:7a:c4:1b:5d:be:59:38:0d:0a:a1:5f:
                    d8:d7:3a:f9:9d:61:3d:f5:7d:a4:bc:72:62:c6:a7:
                    4d:23:b7:41:96:dd:6e:f5:a4:a2:c8:ef:db:7b:27:
                    48:04:af:f3:1b:2a:da:ab:f3:56:c6:af:2c:6b:11:
                    b5:52:4f:27:17:13:a5:3e:2f:60:8a:90:69:b8:94:
                    db:39:3e:19:18:68:dd:9d:71:f2:22:0a:9b:26:a0:
                    fe:cb:9b:06:2c:c8:19:c2:da:53:c1:81:ea:70:bc:
                    da:89:c4:d7:f2:88:a7:b2:93:7d:d3:f7:09:f4:4e:
                    6a:71:6d:2f:53:c5:b3:35:84:23:93:b2:40:a6:f3:
                    9f:85
                Exponent: 65537 (0x10001)
        X509v3 extensions:
            X509v3 Basic Constraints: critical
                CA:FALSE
            X509v3 Subject Key Identifier: 
                EB:FA:9D:54:BE:AE:5D:89:C2:9E:E5:DC:77:C2:CC:A2:8F:BE:91:5B
            X509v3 Key Usage: critical
                Digital Signature, Non Repudiation, Key Encipherment
            X509v3 Authority Key Identifier: 
                B0:FE:87:42:47:92:8B:11:B5:AA:B6:B6:4C:4C:CB:E6:7A:7D:46:E7
            X509v3 Subject Alternative Name: 
                email:testiam@cnaf.infn.it
    Signature Algorithm: sha512WithRSAEncryption
    Signature Value:
        68:db:50:bb:10:15:9e:d7:97:df:6f:dd:70:fe:0c:54:78:99:
        2b:1d:3c:0e:ff:4c:d2:62:49:a0:6a:ef:64:76:11:b6:94:1e:
        65:94:a4:30:33:34:fa:85:fb:5d:3c:c8:f9:84:e7:b7:e4:af:
        7c:5e:4d:44:3d:a9:93:b9:40:58:f2:0b:75:8f:30:3f:99:a4:
        14:1e:54:48:1e:24:f6:d5:08:f8:a5:2c:44:c4:e7:f9:0f:4a:
        70:b8:b3:c3:84:74:8f:c6:e7:fa:db:af:cb:cd:2b:9f:b6:b9:
        38:ed:80:d2:a5:49:4e:3a:7e:42:30:d3:1d:0f:9b:43:af:46:
        21:c6:19:f7:c2:f2:9e:b3:f1:88:87:48:ec:b0:31:60:3e:4d:
        1f:6d:38:8f:f7:f4:71:c8:2b:a5:ec:fd:10:58:d0:a8:65:ec:
        f9:28:dc:3b:bc:64:d6:d9:2d:7d:d3:66:49:9b:16:71:b7:d8:
        fe:26:1e:b2:db:80:dd:f8:b9:d5:03:3b:67:ba:43:d4:a2:3b:
        36:69:56:b7:3b:4c:bc:c2:96:e1:ea:fc:22:1e:3c:f7:8b:05:
        32:8c:f6:7c:38:21:72:c8:d3:87:6a:92:72:a9:14:e2:e2:7e:
        9d:9e:38:cf:56:7a:16:23:b6:a7:05:1b:71:30:75:dc:40:13:
        04:e8:3e:b5
-----BEGIN CERTIFICATE-----
MIIDczCCAlugAwIBAgIUb/UoOM0NZBxS6c5ijfubvdoAdS4wDQYJKoZIhvcNAQEN
BQAwLTELMAkGA1UEBhMCSVQxDDAKBgNVBAoMA0lHSTEQMA4GA1UEAwwHVGVzdCBD
QTAeFw0yNTA5MjQwODQzMzZaFw0yNTEwMjQwODQzMzZaMDYxCzAJBgNVBAYTAklU
MQwwCgYDVQQKDANJR0kxGTAXBgNVBAMMEGlhbS50ZXN0LmV4YW1wbGUwggEiMA0G
CSqGSIb3DQEBAQUAA4IBDwAwggEKAoIBAQCXL3YzHV0TBpstCF57fx99Io4uQSFe
jX2DZRuSi1aK7lxr3Bvx431THX6gis5aDNBAzdcD2IkBFhM1Jip26TIWiyxw8RsL
S2udtV/3hdcvOd+PFCUx9xug0NH6oygI61CF5ZyCG5lsJIhXHN8r5LVRnwt7jIad
TH1fjrB6xBtdvlk4DQqhX9jXOvmdYT31faS8cmLGp00jt0GW3W71pKLI79t7J0gE
r/MbKtqr81bGryxrEbVSTycXE6U+L2CKkGm4lNs5PhkYaN2dcfIiCpsmoP7LmwYs
yBnC2lPBgepwvNqJxNfyiKeyk33T9wn0TmpxbS9TxbM1hCOTskCm85+FAgMBAAGj
gYEwfzAMBgNVHRMBAf8EAjAAMB0GA1UdDgQWBBTr+p1Uvq5dicKe5dx3wsyij76R
WzAOBgNVHQ8BAf8EBAMCBeAwHwYDVR0jBBgwFoAUsP6HQkeSixG1qra2TEzL5np9
RucwHwYDVR0RBBgwFoEUdGVzdGlhbUBjbmFmLmluZm4uaXQwDQYJKoZIhvcNAQEN
BQADggEBAGjbULsQFZ7Xl99v3XD+DFR4mSsdPA7/TNJiSaBq72R2EbaUHmWUpDAz
NPqF+108yPmE57fkr3xeTUQ9qZO5QFjyC3WPMD+ZpBQeVEgeJPbVCPilLETE5/kP
SnC4s8OEdI/G5/rbr8vNK5+2uTjtgNKlSU46fkIw0x0Pm0OvRiHGGffC8p6z8YiH
SOywMWA+TR9tOI/39HHIK6Xs/RBY0Khl7Pko3Du8ZNbZLX3TZkmbFnG32P4mHrLb
gN34udUDO2e6Q9SiOzZpVrc7TLzCluHq/CIePPeLBTKM9nw4IXLI04dqknKpFOLi
fp2eOM9WehYjtqcFG3EwddxAEwToPrU=
-----END CERTIFICATE-----
