Certificate:
    Data:
        Version: 3 (0x2)
        Serial Number:
            2a:f2:89:e3:bd:ad:3e:9c:02:d0:d4:22:79:4a:ad:db:fe:b0:47:77
        Signature Algorithm: sha512WithRSAEncryption
        Issuer: C=IT, O=IGI, CN=Test CA
        Validity
            Not Before: Sep 30 08:46:45 2025 GMT
            Not After : Oct 30 08:46:45 2025 GMT
        Subject: C=IT, O=IGI, CN=iam.test.example
        Subject Public Key Info:
            Public Key Algorithm: rsaEncryption
                Public-Key: (2048 bit)
                Modulus:
                    00:de:c6:b9:ed:86:c9:79:34:7c:92:16:12:fa:b8:
                    06:cf:22:df:3b:25:c9:fb:b5:1d:2a:3c:84:17:fd:
                    8d:60:a3:f5:ec:91:33:a9:d3:7f:28:8f:ec:ba:93:
                    51:a8:24:73:5f:67:c9:1a:65:c6:9c:06:31:d4:48:
                    b6:96:1f:12:6e:b0:f2:48:ed:74:dc:06:f4:3d:0c:
                    46:c5:59:53:e8:df:3a:af:0c:e7:43:f9:d9:2a:0a:
                    3b:b4:bf:ff:ae:0f:69:c3:ee:30:b5:14:e8:57:fd:
                    b1:dd:2d:0c:d0:a4:0b:c9:0a:19:0a:7a:f2:61:b7:
                    68:23:71:79:69:3d:e2:33:3f:ac:d8:43:5c:d9:aa:
                    31:cb:c8:c1:41:98:35:1d:57:20:80:10:1f:67:99:
                    10:ae:6e:4d:30:e9:22:c8:e0:b5:25:4e:93:0a:5f:
                    25:a3:43:c3:58:db:a7:97:5a:c9:79:37:5b:6a:3a:
                    1b:8d:f5:ee:fd:8d:c9:50:f5:c7:2a:0a:d8:ff:58:
                    69:6c:4e:54:52:ac:49:5f:cb:d7:c8:42:17:c7:9d:
                    c8:0e:fe:8a:aa:4e:a4:52:4c:ad:4e:5a:f9:27:5d:
                    49:8e:45:a1:04:52:63:3f:44:89:ce:9d:29:a0:38:
                    fa:9c:52:bd:f8:a2:67:c0:24:2a:64:30:19:df:3b:
                    44:bf
                Exponent: 65537 (0x10001)
        X509v3 extensions:
            X509v3 Basic Constraints: critical
                CA:FALSE
            X509v3 Subject Key Identifier: 
                13:91:34:50:5E:07:F5:31:53:A9:A0:79:C4:1C:79:2A:F2:71:0A:D2
            X509v3 Key Usage: critical
                Digital Signature, Non Repudiation, Key Encipherment
            X509v3 Extended Key Usage: 
                TLS Web Server Authentication
            X509v3 Authority Key Identifier: 
                2E:9D:E6:6B:E6:18:8D:09:C1:42:66:3F:58:B5:33:38:AE:B7:8A:32
            X509v3 Subject Alternative Name: 
                DNS:iam.test.example
    Signature Algorithm: sha512WithRSAEncryption
    Signature Value:
        7f:8d:f0:48:2f:c4:b4:e4:f1:50:0c:c4:89:11:4b:80:de:c5:
        79:96:83:38:a8:84:cb:3e:71:f4:1e:3d:e3:57:c1:e9:f5:64:
        c4:fa:08:c3:03:d6:47:e5:f8:11:e7:24:d0:05:40:71:9a:31:
        5a:90:c0:55:be:c8:88:15:59:4b:e2:84:a8:a1:40:12:c3:7c:
        d5:80:76:fc:6d:33:1d:91:94:65:af:f5:1a:48:d8:9a:f7:37:
        b8:dc:de:0d:86:49:1a:e9:c0:44:81:82:70:d2:89:d1:8a:28:
        62:98:94:c7:20:9c:3b:20:ec:89:50:b1:5e:f4:9d:c4:42:43:
        4f:c5:a6:0e:b3:fc:e9:eb:6a:a0:2b:e6:8d:65:61:0b:82:2a:
        d8:65:42:2e:d9:f0:2d:55:28:ea:ad:2a:10:3f:a5:c9:44:b6:
        a7:bd:d2:aa:27:1e:f6:c7:0a:24:1e:4d:17:21:e7:c1:35:19:
        cb:de:87:14:81:3b:9e:57:0c:eb:6e:a0:7c:ef:78:86:ce:eb:
        87:1b:cf:f6:f2:3a:af:5d:49:64:f6:88:52:5f:03:a0:38:97:
        03:0a:01:e7:4a:c9:55:cb:bd:01:de:4a:fe:05:d5:10:69:94:
        2b:8a:f8:e8:86:e1:85:a4:bd:5f:a6:e5:5d:a6:e9:f8:97:bc:
        1a:b0:05:f9
-----BEGIN CERTIFICATE-----
MIIDhTCCAm2gAwIBAgIUKvKJ472tPpwC0NQieUqt2/6wR3cwDQYJKoZIhvcNAQEN
BQAwLTELMAkGA1UEBhMCSVQxDDAKBgNVBAoMA0lHSTEQMA4GA1UEAwwHVGVzdCBD
QTAeFw0yNTA5MzAwODQ2NDVaFw0yNTEwMzAwODQ2NDVaMDYxCzAJBgNVBAYTAklU
MQwwCgYDVQQKDANJR0kxGTAXBgNVBAMMEGlhbS50ZXN0LmV4YW1wbGUwggEiMA0G
CSqGSIb3DQEBAQUAA4IBDwAwggEKAoIBAQDexrnthsl5NHySFhL6uAbPIt87Jcn7
tR0qPIQX/Y1go/XskTOp038oj+y6k1GoJHNfZ8kaZcacBjHUSLaWHxJusPJI7XTc
BvQ9DEbFWVPo3zqvDOdD+dkqCju0v/+uD2nD7jC1FOhX/bHdLQzQpAvJChkKevJh
t2gjcXlpPeIzP6zYQ1zZqjHLyMFBmDUdVyCAEB9nmRCubk0w6SLI4LUlTpMKXyWj
Q8NY26eXWsl5N1tqOhuN9e79jclQ9ccqCtj/WGlsTlRSrElfy9fIQhfHncgO/oqq
TqRSTK1OWvknXUmORaEEUmM/RInOnSmgOPqcUr34omfAJCpkMBnfO0S/AgMBAAGj
gZMwgZAwDAYDVR0TAQH/BAIwADAdBgNVHQ4EFgQUE5E0UF4H9TFTqaB5xBx5KvJx
CtIwDgYDVR0PAQH/BAQDAgXgMBMGA1UdJQQMMAoGCCsGAQUFBwMBMB8GA1UdIwQY
MBaAFC6d5mvmGI0JwUJmP1i1Mziut4oyMBsGA1UdEQQUMBKCEGlhbS50ZXN0LmV4
YW1wbGUwDQYJKoZIhvcNAQENBQADggEBAH+N8EgvxLTk8VAMxIkRS4DexXmWgzio
hMs+cfQePeNXwen1ZMT6CMMD1kfl+BHnJNAFQHGaMVqQwFW+yIgVWUvihKihQBLD
fNWAdvxtMx2RlGWv9RpI2Jr3N7jc3g2GSRrpwESBgnDSidGKKGKYlMcgnDsg7IlQ
sV70ncRCQ0/Fpg6z/OnraqAr5o1lYQuCKthlQi7Z8C1VKOqtKhA/pclEtqe90qon
HvbHCiQeTRch58E1GcvehxSBO55XDOtuoHzveIbO64cbz/byOq9dSWT2iFJfA6A4
lwMKAedKyVXLvQHeSv4F1RBplCuK+OiG4YWkvV+m5V2m6fiXvBqwBfk=
-----END CERTIFICATE-----
