Certificate:
    Data:
        Version: 3 (0x2)
        Serial Number:
            66:6b:31:76:35:57:e2:a9:c3:92:fb:74:41:e2:c7:c2:1b:1d:97:6c
        Signature Algorithm: sha512WithRSAEncryption
        Issuer: C=IT, O=IGI, CN=Test CA
        Validity
            Not Before: Sep 25 13:54:36 2025 GMT
            Not After : Oct 25 13:54:36 2025 GMT
        Subject: C=IT, O=IGI, CN=iam.test.example
        Subject Public Key Info:
            Public Key Algorithm: rsaEncryption
                Public-Key: (2048 bit)
                Modulus:
                    00:cd:3b:bd:86:94:a5:78:05:7e:04:11:16:19:7b:
                    a0:86:cd:5c:ce:58:a9:4e:74:e1:63:97:49:20:67:
                    c5:1a:48:b7:a1:77:6b:20:5f:5d:cd:7b:2f:50:8e:
                    36:07:d8:ea:f8:7c:57:98:d5:bc:30:55:c4:6c:9e:
                    79:59:29:19:9f:70:5d:5c:1f:eb:63:bb:4f:cc:cb:
                    2c:d6:6e:0d:fa:78:c5:eb:58:3c:78:df:4d:72:50:
                    69:e5:e5:3f:65:79:27:fb:b9:e7:2e:6f:1d:ad:d2:
                    40:a9:af:31:47:43:d6:d0:1c:8d:ea:55:c0:9e:22:
                    31:03:df:82:fc:6b:ba:a1:3f:27:52:0a:5f:ff:e4:
                    60:73:f4:ab:49:d0:2c:54:c6:6f:7a:da:be:87:60:
                    60:53:83:24:53:b5:b4:c3:13:8a:d8:32:aa:25:90:
                    56:6a:64:be:d3:fd:c5:ca:08:2f:f1:cf:84:f8:87:
                    8e:a8:94:dc:06:70:fb:c2:4e:27:7b:d2:94:65:6b:
                    78:e2:53:a3:df:fa:6e:ca:12:f8:cf:6c:f2:15:2d:
                    63:d3:1a:59:88:4a:46:e9:92:fc:7d:80:c1:28:14:
                    8d:13:11:2a:f7:22:63:90:52:00:4e:7e:0f:3b:88:
                    aa:f3:9d:5d:4c:91:83:9d:d5:9e:6e:46:64:a5:b2:
                    73:33
                Exponent: 65537 (0x10001)
        X509v3 extensions:
            X509v3 Basic Constraints: critical
                CA:FALSE
            X509v3 Subject Key Identifier: 
                87:9B:69:8A:62:EA:29:E0:00:8C:03:6B:77:20:2B:C0:22:88:98:A1
            X509v3 Key Usage: critical
                Digital Signature, Non Repudiation, Key Encipherment
            X509v3 Authority Key Identifier: 
                2E:9D:E6:6B:E6:18:8D:09:C1:42:66:3F:58:B5:33:38:AE:B7:8A:32
            X509v3 Subject Alternative Name: 
                email:testiam@cnaf.infn.it
    Signature Algorithm: sha512WithRSAEncryption
    Signature Value:
        6d:60:f4:e0:a3:89:6f:c3:e9:34:f3:bd:8f:90:4a:14:c9:0a:
        6d:9d:5f:fe:a2:0b:54:ac:57:03:20:07:71:23:90:6e:73:dd:
        c0:50:9b:64:ba:37:fb:5c:27:00:b8:50:38:da:ec:47:ad:e4:
        fc:4d:e2:e3:c7:45:88:ba:32:67:7e:4d:6f:65:95:c7:18:7a:
        4b:f0:d4:00:ba:79:ac:02:89:3c:98:5c:aa:84:8c:77:c4:d2:
        3a:45:f9:22:15:07:63:a5:8d:6d:81:6d:a1:1e:46:f5:e4:62:
        ac:2b:1e:ec:b6:de:06:41:15:23:72:aa:7e:b2:e5:f7:13:bc:
        f3:f6:77:5f:d8:6e:2a:88:30:ba:9a:d3:2c:39:cc:60:30:e2:
        e2:58:ab:9f:71:d2:ff:d4:a2:1c:63:99:f0:10:bc:c0:05:7c:
        8f:24:45:8e:42:09:b2:b4:3f:bd:54:87:4b:89:1c:9d:21:c9:
        60:94:eb:3d:95:ee:2c:f4:b9:98:ad:07:2a:96:7b:e4:59:4b:
        b5:1b:81:75:66:6e:89:ff:c9:39:c8:5b:90:41:d2:fb:27:da:
        64:3f:e4:02:e3:35:db:17:62:8e:5b:a2:49:af:be:a2:01:2a:
        cd:b3:74:31:59:6a:e5:95:da:31:76:d0:07:12:4e:47:c8:a3:
        fe:8e:63:2b
-----BEGIN CERTIFICATE-----
MIIDczCCAlugAwIBAgIUZmsxdjVX4qnDkvt0QeLHwhsdl2wwDQYJKoZIhvcNAQEN
BQAwLTELMAkGA1UEBhMCSVQxDDAKBgNVBAoMA0lHSTEQMA4GA1UEAwwHVGVzdCBD
QTAeFw0yNTA5MjUxMzU0MzZaFw0yNTEwMjUxMzU0MzZaMDYxCzAJBgNVBAYTAklU
MQwwCgYDVQQKDANJR0kxGTAXBgNVBAMMEGlhbS50ZXN0LmV4YW1wbGUwggEiMA0G
CSqGSIb3DQEBAQUAA4IBDwAwggEKAoIBAQDNO72GlKV4BX4EERYZe6CGzVzOWKlO
dOFjl0kgZ8UaSLehd2sgX13Ney9QjjYH2Or4fFeY1bwwVcRsnnlZKRmfcF1cH+tj
u0/MyyzWbg36eMXrWDx4301yUGnl5T9leSf7uecubx2t0kCprzFHQ9bQHI3qVcCe
IjED34L8a7qhPydSCl//5GBz9KtJ0CxUxm962r6HYGBTgyRTtbTDE4rYMqolkFZq
ZL7T/cXKCC/xz4T4h46olNwGcPvCTid70pRla3jiU6Pf+m7KEvjPbPIVLWPTGlmI
Skbpkvx9gMEoFI0TESr3ImOQUgBOfg87iKrznV1MkYOd1Z5uRmSlsnMzAgMBAAGj
gYEwfzAMBgNVHRMBAf8EAjAAMB0GA1UdDgQWBBSHm2mKYuop4ACMA2t3ICvAIoiY
oTAOBgNVHQ8BAf8EBAMCBeAwHwYDVR0jBBgwFoAULp3ma+YYjQnBQmY/WLUzOK63
ijIwHwYDVR0RBBgwFoEUdGVzdGlhbUBjbmFmLmluZm4uaXQwDQYJKoZIhvcNAQEN
BQADggEBAG1g9OCjiW/D6TTzvY+QShTJCm2dX/6iC1SsVwMgB3EjkG5z3cBQm2S6
N/tcJwC4UDja7Eet5PxN4uPHRYi6Mmd+TW9llccYekvw1AC6eawCiTyYXKqEjHfE
0jpF+SIVB2OljW2BbaEeRvXkYqwrHuy23gZBFSNyqn6y5fcTvPP2d1/YbiqIMLqa
0yw5zGAw4uJYq59x0v/UohxjmfAQvMAFfI8kRY5CCbK0P71Uh0uJHJ0hyWCU6z2V
7iz0uZitByqWe+RZS7UbgXVmbon/yTnIW5BB0vsn2mQ/5ALjNdsXYo5bokmvvqIB
Ks2zdDFZauWV2jF20AcSTkfIo/6OYys=
-----END CERTIFICATE-----
